; Function Attrs: nounwind uwtable
define dso_local void @ExecEndIndexScan(ptr noundef readonly captures(none) %0) local_unnamed_addr #0 {
  %2 = getelementptr inbounds nuw i8, ptr %0, i64 296
  %3 = load ptr, ptr %2, align 8
  %4 = getelementptr inbounds nuw i8, ptr %0, i64 304
  %5 = load ptr, ptr %4, align 8
  %.not = icmp eq ptr %5, null
  br i1 %.not, label %7, label %6

6:                                                ; preds = %1
  tail call void @index_endscan(ptr noundef nonnull %5) #7
  br label %7

7:                                                ; preds = %6, %1
  %.not7 = icmp eq ptr %3, null
  br i1 %.not7, label %9, label %8

8:                                                ; preds = %7
  tail call void @index_close(ptr noundef nonnull %3, i32 noundef 0) #7
  br label %9

9:                                                ; preds = %8, %7
  ret void
}